target datalayout = "e-m:e-p270:32:32-p271:32:32-p272:64:64-i64:64-i128:128-f80:128-n8:16:32:64-S128"
target triple = "x86_64-pc-linux-gnu"

%struct.ident_t = type { i32, i32, i32, i32, ptr }
%struct.__loadu_ps = type { <8 x float> }
%struct.__storeu_ps = type { <8 x float> }

@1 = private unnamed_addr constant %struct.ident_t { i32 0, i32 514, i32 0, i32 22, ptr @0 }, align 8

; Function Attrs: alwaysinline mustprogress nounwind uwtable
define internal noundef nofpclass(nan inf) <8 x float> @_ZL13_mm256_add_psDv8_fS_(<8 x float> noundef nofpclass(nan inf) %0, <8 x float> noundef nofpclass(nan inf) %1) #7 {
  %3 = alloca <8 x float>, align 32
  %4 = alloca <8 x float>, align 32
  store <8 x float> %0, ptr %3, align 32, !tbaa !55
  store <8 x float> %1, ptr %4, align 32, !tbaa !55
  %5 = load <8 x float>, ptr %3, align 32, !tbaa !55
  %6 = load <8 x float>, ptr %4, align 32, !tbaa !55
  %7 = fadd fast <8 x float> %5, %6
  ret <8 x float> %7
}

; Function Attrs: alwaysinline mustprogress nounwind uwtable
define internal noundef nofpclass(nan inf) <8 x float> @_ZL13_mm256_mul_psDv8_fS_(<8 x float> noundef nofpclass(nan inf) %0, <8 x float> noundef nofpclass(nan inf) %1) #7 {
  %3 = alloca <8 x float>, align 32
  %4 = alloca <8 x float>, align 32
  store <8 x float> %0, ptr %3, align 32, !tbaa !55
  store <8 x float> %1, ptr %4, align 32, !tbaa !55
  %5 = load <8 x float>, ptr %3, align 32, !tbaa !55
  %6 = load <8 x float>, ptr %4, align 32, !tbaa !55
  %7 = fmul fast <8 x float> %5, %6
  ret <8 x float> %7
}

; Function Attrs: alwaysinline mustprogress nounwind uwtable
define internal noundef nofpclass(nan inf) <8 x float> @_ZL13_mm256_min_psDv8_fS_(<8 x float> noundef nofpclass(nan inf) %0, <8 x float> noundef nofpclass(nan inf) %1) #7 {
  %3 = alloca <8 x float>, align 32
  %4 = alloca <8 x float>, align 32
  store <8 x float> %0, ptr %3, align 32, !tbaa !55
  store <8 x float> %1, ptr %4, align 32, !tbaa !55
  %5 = load <8 x float>, ptr %3, align 32, !tbaa !55
  %6 = load <8 x float>, ptr %4, align 32, !tbaa !55
  %7 = call fast <8 x float> @llvm.x86.avx.min.ps.256(<8 x float> %5, <8 x float> %6)
  ret <8 x float> %7
}

; Function Attrs: alwaysinline mustprogress nounwind uwtable
define internal noundef nofpclass(nan inf) <8 x float> @_ZL13_mm256_max_psDv8_fS_(<8 x float> noundef nofpclass(nan inf) %0, <8 x float> noundef nofpclass(nan inf) %1) #7 {
  %3 = alloca <8 x float>, align 32
  %4 = alloca <8 x float>, align 32
  store <8 x float> %0, ptr %3, align 32, !tbaa !55
  store <8 x float> %1, ptr %4, align 32, !tbaa !55
  %5 = load <8 x float>, ptr %3, align 32, !tbaa !55
  %6 = load <8 x float>, ptr %4, align 32, !tbaa !55
  %7 = call fast <8 x float> @llvm.x86.avx.max.ps.256(<8 x float> %5, <8 x float> %6)
  ret <8 x float> %7
}

; Function Attrs: alwaysinline mustprogress nounwind uwtable
define internal noundef nofpclass(nan inf) <8 x float> @_ZL17_mm256_setzero_psv() #7 {
  %1 = alloca <8 x float>, align 32
  store <8 x float> zeroinitializer, ptr %1, align 32, !tbaa !55
  %2 = load <8 x float>, ptr %1, align 32, !tbaa !55
  ret <8 x float> %2
}

; Function Attrs: alwaysinline mustprogress nounwind uwtable
define internal noundef nofpclass(nan inf) <8 x float> @_ZL13_mm256_set_psffffffff(float noundef nofpclass(nan inf) %0, float noundef nofpclass(nan inf) %1, float noundef nofpclass(nan inf) %2, float noundef nofpclass(nan inf) %3, float noundef nofpclass(nan inf) %4, float noundef nofpclass(nan inf) %5, float noundef nofpclass(nan inf) %6, float noundef nofpclass(nan inf) %7) #7 {
  %9 = alloca float, align 4
  %10 = alloca float, align 4
  %11 = alloca float, align 4
  %12 = alloca float, align 4
  %13 = alloca float, align 4
  %14 = alloca float, align 4
  %15 = alloca float, align 4
  %16 = alloca float, align 4
  %17 = alloca <8 x float>, align 32
  store float %0, ptr %9, align 4, !tbaa !47
  store float %1, ptr %10, align 4, !tbaa !47
  store float %2, ptr %11, align 4, !tbaa !47
  store float %3, ptr %12, align 4, !tbaa !47
  store float %4, ptr %13, align 4, !tbaa !47
  store float %5, ptr %14, align 4, !tbaa !47
  store float %6, ptr %15, align 4, !tbaa !47
  store float %7, ptr %16, align 4, !tbaa !47
  %18 = load float, ptr %16, align 4, !tbaa !47
  %19 = insertelement <8 x float> poison, float %18, i32 0
  %20 = load float, ptr %15, align 4, !tbaa !47
  %21 = insertelement <8 x float> %19, float %20, i32 1
  %22 = load float, ptr %14, align 4, !tbaa !47
  %23 = insertelement <8 x float> %21, float %22, i32 2
  %24 = load float, ptr %13, align 4, !tbaa !47
  %25 = insertelement <8 x float> %23, float %24, i32 3
  %26 = load float, ptr %12, align 4, !tbaa !47
  %27 = insertelement <8 x float> %25, float %26, i32 4
  %28 = load float, ptr %11, align 4, !tbaa !47
  %29 = insertelement <8 x float> %27, float %28, i32 5
  %30 = load float, ptr %10, align 4, !tbaa !47
  %31 = insertelement <8 x float> %29, float %30, i32 6
  %32 = load float, ptr %9, align 4, !tbaa !47
  %33 = insertelement <8 x float> %31, float %32, i32 7
  store <8 x float> %33, ptr %17, align 32, !tbaa !55
  %34 = load <8 x float>, ptr %17, align 32, !tbaa !55
  ret <8 x float> %34
}

; Function Attrs: noinline noreturn nounwind uwtable
define linkonce_odr hidden void @__clang_call_terminate(ptr noundef %0) #8 comdat {
  %2 = call ptr @__cxa_begin_catch(ptr %0) #6
  call void @_ZSt9terminatev() #19
  unreachable
}

; Function Attrs: alwaysinline mustprogress nounwind uwtable
define internal void @_ZL16_mm256_storeu_psPfDv8_f(ptr noundef %0, <8 x float> noundef nofpclass(nan inf) %1) #7 {
  %3 = alloca ptr, align 8
  %4 = alloca <8 x float>, align 32
  store ptr %0, ptr %3, align 8, !tbaa !43
  store <8 x float> %1, ptr %4, align 32, !tbaa !55
  %5 = load <8 x float>, ptr %4, align 32, !tbaa !55
  %6 = load ptr, ptr %3, align 8, !tbaa !43
  %7 = getelementptr inbounds nuw %struct.__storeu_ps, ptr %6, i32 0, i32 0
  store <8 x float> %5, ptr %7, align 1, !tbaa !55
  ret void
}

; Function Attrs: alwaysinline mustprogress uwtable
define internal noundef nofpclass(nan inf) <8 x float> @_ZL9prelu_avxDv8_fS_(<8 x float> noundef nofpclass(nan inf) %0, <8 x float> noundef nofpclass(nan inf) %1) #9 {
  %3 = alloca <8 x float>, align 32
  %4 = alloca <8 x float>, align 32
  %5 = alloca <8 x float>, align 32
  %6 = alloca <8 x float>, align 32
  store <8 x float> %0, ptr %3, align 32, !tbaa !55
  store <8 x float> %1, ptr %4, align 32, !tbaa !55
  call void @llvm.lifetime.start.p0(i64 32, ptr %5) #6
  %7 = call fast noundef nofpclass(nan inf) <8 x float> @_ZL17_mm256_setzero_psv()
  %8 = load <8 x float>, ptr %3, align 32, !tbaa !55
  %9 = call fast noundef nofpclass(nan inf) <8 x float> @_ZL13_mm256_max_psDv8_fS_(<8 x float> noundef nofpclass(nan inf) %7, <8 x float> noundef nofpclass(nan inf) %8)
  store <8 x float> %9, ptr %5, align 32, !tbaa !55
  call void @llvm.lifetime.start.p0(i64 32, ptr %6) #6
  %10 = call fast noundef nofpclass(nan inf) <8 x float> @_ZL17_mm256_setzero_psv()
  %11 = load <8 x float>, ptr %3, align 32, !tbaa !55
  %12 = call fast noundef nofpclass(nan inf) <8 x float> @_ZL13_mm256_min_psDv8_fS_(<8 x float> noundef nofpclass(nan inf) %10, <8 x float> noundef nofpclass(nan inf) %11)
  store <8 x float> %12, ptr %6, align 32, !tbaa !55
  %13 = load <8 x float>, ptr %5, align 32, !tbaa !55
  %14 = load <8 x float>, ptr %4, align 32, !tbaa !55
  %15 = load <8 x float>, ptr %6, align 32, !tbaa !55
  %16 = call fast noundef nofpclass(nan inf) <8 x float> @_ZL13_mm256_mul_psDv8_fS_(<8 x float> noundef nofpclass(nan inf) %14, <8 x float> noundef nofpclass(nan inf) %15)
  %17 = call fast noundef nofpclass(nan inf) <8 x float> @_ZL13_mm256_add_psDv8_fS_(<8 x float> noundef nofpclass(nan inf) %13, <8 x float> noundef nofpclass(nan inf) %16)
  call void @llvm.lifetime.end.p0(i64 32, ptr %6) #6
  call void @llvm.lifetime.end.p0(i64 32, ptr %5) #6
  ret <8 x float> %17
}

; Function Attrs: alwaysinline mustprogress uwtable
define internal noundef nofpclass(nan inf) <8 x float> @_ZL14_mm256_set1_psf(float noundef nofpclass(nan inf) %0) #9 {
  %2 = alloca float, align 4
  store float %0, ptr %2, align 4, !tbaa !47
  %3 = load float, ptr %2, align 4, !tbaa !47
  %4 = load float, ptr %2, align 4, !tbaa !47
  %5 = load float, ptr %2, align 4, !tbaa !47
  %6 = load float, ptr %2, align 4, !tbaa !47
  %7 = load float, ptr %2, align 4, !tbaa !47
  %8 = load float, ptr %2, align 4, !tbaa !47
  %9 = load float, ptr %2, align 4, !tbaa !47
  %10 = load float, ptr %2, align 4, !tbaa !47
  %11 = call fast noundef nofpclass(nan inf) <8 x float> @_ZL13_mm256_set_psffffffff(float noundef nofpclass(nan inf) %3, float noundef nofpclass(nan inf) %4, float noundef nofpclass(nan inf) %5, float noundef nofpclass(nan inf) %6, float noundef nofpclass(nan inf) %7, float noundef nofpclass(nan inf) %8, float noundef nofpclass(nan inf) %9, float noundef nofpclass(nan inf) %10)
  ret <8 x float> %11
}

; Function Attrs: alwaysinline mustprogress nounwind uwtable
define internal noundef nofpclass(nan inf) <8 x float> @_ZL15_mm256_loadu_psPKf(ptr noundef %0) #7 {
  %2 = alloca ptr, align 8
  store ptr %0, ptr %2, align 8, !tbaa !43
  %3 = load ptr, ptr %2, align 8, !tbaa !43
  %4 = getelementptr inbounds nuw %struct.__loadu_ps, ptr %3, i32 0, i32 0
  %5 = load <8 x float>, ptr %4, align 1, !tbaa !55
  ret <8 x float> %5
}

; Function Attrs: alwaysinline norecurse nounwind uwtable
define internal void @_ZNK4ncnn13PReLU_x86_avx15forward_inplaceERNS_3MatERKNS_6OptionE.omp_outlined.3(ptr noalias noundef %0, ptr noalias noundef %1, ptr noundef nonnull align 4 dereferenceable(4) %2, ptr noundef nonnull align 4 dereferenceable(4) %3, ptr noundef nonnull align 8 dereferenceable(8) %4, ptr noundef nonnull align 4 dereferenceable(4) %5) #5 personality ptr @__gxx_personality_v0 {
  %7 = alloca ptr, align 8
  %8 = alloca ptr, align 8
  %9 = alloca ptr, align 8
  %10 = alloca ptr, align 8
  %11 = alloca ptr, align 8
  %12 = alloca ptr, align 8
  %13 = alloca i32, align 4
  %14 = alloca i32, align 4
  %15 = alloca i32, align 4
  %16 = alloca i32, align 4
  %17 = alloca i32, align 4
  %18 = alloca i32, align 4
  %19 = alloca i32, align 4
  %20 = alloca i32, align 4
  %21 = alloca i32, align 4
  %22 = alloca i32, align 4
  %23 = alloca <8 x float>, align 32
  %24 = alloca <8 x float>, align 32
  store ptr %0, ptr %7, align 8, !tbaa !51
  store ptr %1, ptr %8, align 8, !tbaa !51
  store ptr %2, ptr %9, align 8, !tbaa !51
  store ptr %3, ptr %10, align 8, !tbaa !51
  store ptr %4, ptr %11, align 8, !tbaa !52
  store ptr %5, ptr %12, align 8, !tbaa !43
  %25 = load ptr, ptr %9, align 8, !tbaa !51
  %26 = load ptr, ptr %10, align 8, !tbaa !51
  %27 = load ptr, ptr %11, align 8, !tbaa !52
  %28 = load ptr, ptr %12, align 8, !tbaa !43
  call void @llvm.lifetime.start.p0(i64 4, ptr %13) #6
  call void @llvm.lifetime.start.p0(i64 4, ptr %14) #6
  %29 = load i32, ptr %25, align 4, !tbaa !23
  store i32 %29, ptr %14, align 4, !tbaa !23
  call void @llvm.lifetime.start.p0(i64 4, ptr %15) #6
  %30 = load i32, ptr %14, align 4, !tbaa !23
  %31 = sub nsw i32 %30, 0
  %32 = sdiv i32 %31, 1
  %33 = sub nsw i32 %32, 1
  store i32 %33, ptr %15, align 4, !tbaa !23
  call void @llvm.lifetime.start.p0(i64 4, ptr %16) #6
  store i32 0, ptr %16, align 4, !tbaa !23
  call void @llvm.lifetime.end.p0(i64 4, ptr %16) #6
  %34 = load i32, ptr %14, align 4, !tbaa !23
  %35 = icmp slt i32 0, %34
  br i1 %35, label %36, label %89

36:                                               ; preds = %6
  call void @llvm.lifetime.start.p0(i64 4, ptr %17) #6
  store i32 0, ptr %17, align 4, !tbaa !23
  call void @llvm.lifetime.start.p0(i64 4, ptr %18) #6
  %37 = load i32, ptr %15, align 4, !tbaa !23
  store i32 %37, ptr %18, align 4, !tbaa !23
  call void @llvm.lifetime.start.p0(i64 4, ptr %19) #6
  store i32 1, ptr %19, align 4, !tbaa !23
  call void @llvm.lifetime.start.p0(i64 4, ptr %20) #6
  store i32 0, ptr %20, align 4, !tbaa !23
  call void @llvm.lifetime.start.p0(i64 4, ptr %21) #6
  %38 = load ptr, ptr %7, align 8
  %39 = load i32, ptr %38, align 4, !tbaa !23
  call void @__kmpc_for_static_init_4(ptr @1, i32 %39, i32 34, ptr %20, ptr %17, ptr %18, ptr %19, i32 1, i32 1)
  %40 = load i32, ptr %18, align 4, !tbaa !23
  %41 = load i32, ptr %15, align 4, !tbaa !23
  %42 = icmp sgt i32 %40, %41
  br i1 %42, label %43, label %45

43:                                               ; preds = %36
  %44 = load i32, ptr %15, align 4, !tbaa !23
  br label %47

45:                                               ; preds = %36
  %46 = load i32, ptr %18, align 4, !tbaa !23
  br label %47

47:                                               ; preds = %45, %43
  %48 = phi i32 [ %44, %43 ], [ %46, %45 ]
  store i32 %48, ptr %18, align 4, !tbaa !23
  %49 = load i32, ptr %17, align 4, !tbaa !23
  store i32 %49, ptr %13, align 4, !tbaa !23
  br label %50

50:                                               ; preds = %82, %47
  %51 = load i32, ptr %13, align 4, !tbaa !23
  %52 = load i32, ptr %18, align 4, !tbaa !23
  %53 = icmp sle i32 %51, %52
  br i1 %53, label %55, label %54

54:                                               ; preds = %50
  br label %85

55:                                               ; preds = %50
  %56 = load i32, ptr %13, align 4, !tbaa !23
  %57 = mul nsw i32 %56, 1
  %58 = add nsw i32 0, %57
  store i32 %58, ptr %21, align 4, !tbaa !23
  call void @llvm.lifetime.start.p0(i64 4, ptr %22) #6
  %59 = load i32, ptr %26, align 4, !tbaa !23
  %60 = load i32, ptr %21, align 4, !tbaa !23
  %61 = mul nsw i32 %60, 8
  %62 = add nsw i32 %59, %61
  store i32 %62, ptr %22, align 4, !tbaa !23
  call void @llvm.lifetime.start.p0(i64 32, ptr %23) #6
  %63 = load ptr, ptr %27, align 8, !tbaa !43
  %64 = load i32, ptr %22, align 4, !tbaa !23
  %65 = sext i32 %64 to i64
  %66 = getelementptr inbounds float, ptr %63, i64 %65
  %67 = invoke noundef nofpclass(nan inf) <8 x float> @_ZL15_mm256_loadu_psPKf(ptr noundef %66)
          to label %68 unwind label %90

68:                                               ; preds = %55
  store <8 x float> %67, ptr %23, align 32, !tbaa !55
  call void @llvm.lifetime.start.p0(i64 32, ptr %24) #6
  %69 = load float, ptr %28, align 4, !tbaa !47
  %70 = invoke noundef nofpclass(nan inf) <8 x float> @_ZL14_mm256_set1_psf(float noundef nofpclass(nan inf) %69)
          to label %71 unwind label %90

71:                                               ; preds = %68
  store <8 x float> %70, ptr %24, align 32, !tbaa !55
  %72 = load ptr, ptr %27, align 8, !tbaa !43
  %73 = load i32, ptr %22, align 4, !tbaa !23
  %74 = sext i32 %73 to i64
  %75 = getelementptr inbounds float, ptr %72, i64 %74
  %76 = load <8 x float>, ptr %23, align 32, !tbaa !55
  %77 = load <8 x float>, ptr %24, align 32, !tbaa !55
  %78 = invoke noundef nofpclass(nan inf) <8 x float> @_ZL9prelu_avxDv8_fS_(<8 x float> noundef nofpclass(nan inf) %76, <8 x float> noundef nofpclass(nan inf) %77)
          to label %79 unwind label %90

79:                                               ; preds = %71
  invoke void @_ZL16_mm256_storeu_psPfDv8_f(ptr noundef %75, <8 x float> noundef nofpclass(nan inf) %78)
          to label %80 unwind label %90

80:                                               ; preds = %79
  call void @llvm.lifetime.end.p0(i64 32, ptr %24) #6
  call void @llvm.lifetime.end.p0(i64 32, ptr %23) #6
  call void @llvm.lifetime.end.p0(i64 4, ptr %22) #6
  br label %81

81:                                               ; preds = %80
  br label %82

82:                                               ; preds = %81
  %83 = load i32, ptr %13, align 4, !tbaa !23
  %84 = add nsw i32 %83, 1
  store i32 %84, ptr %13, align 4, !tbaa !23
  br label %50

85:                                               ; preds = %54
  br label %86

86:                                               ; preds = %85
  %87 = load ptr, ptr %7, align 8
  %88 = load i32, ptr %87, align 4, !tbaa !23
  call void @__kmpc_for_static_fini(ptr @1, i32 %88)
  call void @llvm.lifetime.end.p0(i64 4, ptr %21) #6
  call void @llvm.lifetime.end.p0(i64 4, ptr %20) #6
  call void @llvm.lifetime.end.p0(i64 4, ptr %19) #6
  call void @llvm.lifetime.end.p0(i64 4, ptr %18) #6
  call void @llvm.lifetime.end.p0(i64 4, ptr %17) #6
  br label %89

89:                                               ; preds = %86, %6
  call void @llvm.lifetime.end.p0(i64 4, ptr %15) #6
  call void @llvm.lifetime.end.p0(i64 4, ptr %14) #6
  call void @llvm.lifetime.end.p0(i64 4, ptr %13) #6
  ret void

90:                                               ; preds = %79, %71, %68, %55
  %91 = landingpad { ptr, i32 }
          catch ptr null
  %92 = extractvalue { ptr, i32 } %91, 0
  call void @__clang_call_terminate(ptr %92) #19
  unreachable
}